target datalayout = "e-m:e-p270:32:32-p271:32:32-p272:64:64-i64:64-i128:128-f80:128-n8:16:32:64-S128"
target triple = "x86_64-pc-linux-gnu"

%struct.ossl_algorithm_st = type { ptr, ptr, ptr, ptr }

@dummy_decoders = internal constant [2 x %struct.ossl_algorithm_st] [%struct.ossl_algorithm_st { ptr @.str.8, ptr @.str.17, ptr @dummy_decoder_functions, ptr null }, %struct.ossl_algorithm_st zeroinitializer], align 16
@dummy_encoders = internal constant [2 x %struct.ossl_algorithm_st] [%struct.ossl_algorithm_st { ptr @.str.8, ptr @.str.19, ptr @dummy_encoder_functions, ptr null }, %struct.ossl_algorithm_st zeroinitializer], align 16
@dummy_store = internal constant [2 x %struct.ossl_algorithm_st] [%struct.ossl_algorithm_st { ptr @.str.8, ptr @.str.9, ptr @dummy_store_functions, ptr null }, %struct.ossl_algorithm_st zeroinitializer], align 16
@dummy_rand = internal constant [2 x %struct.ossl_algorithm_st] [%struct.ossl_algorithm_st { ptr @.str.8, ptr @.str.9, ptr @dummy_rand_functions, ptr null }, %struct.ossl_algorithm_st zeroinitializer], align 16

; Function Attrs: nounwind uwtable
define internal ptr @dummy_query(ptr noundef %0, i32 noundef %1, ptr noundef %2) #0 {
  %4 = alloca ptr, align 8
  %5 = alloca ptr, align 8
  %6 = alloca i32, align 4
  %7 = alloca ptr, align 8
  store ptr %0, ptr %5, align 8, !tbaa !25
  store i32 %1, ptr %6, align 4, !tbaa !4
  store ptr %2, ptr %7, align 8, !tbaa !26
  %8 = load ptr, ptr %7, align 8, !tbaa !26
  store i32 0, ptr %8, align 4, !tbaa !4
  %9 = load i32, ptr %6, align 4, !tbaa !4
  switch i32 %9, label %14 [
    i32 21, label %10
    i32 20, label %11
    i32 22, label %12
    i32 5, label %13
  ]

10:                                               ; preds = %3
  store ptr @dummy_decoders, ptr %4, align 8
  br label %15

11:                                               ; preds = %3
  store ptr @dummy_encoders, ptr %4, align 8
  br label %15

12:                                               ; preds = %3
  store ptr @dummy_store, ptr %4, align 8
  br label %15

13:                                               ; preds = %3
  store ptr @dummy_rand, ptr %4, align 8
  br label %15

14:                                               ; preds = %3
  store ptr null, ptr %4, align 8
  br label %15

15:                                               ; preds = %14, %13, %12, %11, %10
  %16 = load ptr, ptr %4, align 8
  ret ptr %16
}