; Function Attrs: mustprogress nofree norecurse nosync nounwind willreturn memory(argmem: write) uwtable
define internal noundef ptr @dummy_query(ptr readnone captures(none) %0, i32 noundef %1, ptr noundef writeonly captures(none) initializes((0, 4)) %2) #3 {
  store i32 0, ptr %2, align 4, !tbaa !10
  switch i32 %1, label %7 [
    i32 21, label %8
    i32 20, label %4
    i32 22, label %5
    i32 5, label %6
  ]

4:                                                ; preds = %3
  br label %8

5:                                                ; preds = %3
  br label %8

6:                                                ; preds = %3
  br label %8

7:                                                ; preds = %3
  br label %8

8:                                                ; preds = %3, %7, %6, %5, %4
  %.0 = phi ptr [ null, %7 ], [ @dummy_rand, %6 ], [ @dummy_store, %5 ], [ @dummy_encoders, %4 ], [ @dummy_decoders, %3 ]
  ret ptr %.0
}